; ModuleID = 'source-C-CXX/34/2078.c'
source_filename = "source-C-CXX/34/2078.c"
target datalayout = "e-m:e-p270:32:32-p271:32:32-p272:64:64-i64:64-f80:128-n8:16:32:64-S128"
target triple = "x86_64-pc-linux-gnu"

@.str = private unnamed_addr constant [6 x i8] c"%d,%d\00", align 1
@.str.1 = private unnamed_addr constant [3 x i8] c"%d\00", align 1
@.str.2 = private unnamed_addr constant [6 x i8] c"%d+%d\00", align 1
@.str.3 = private unnamed_addr constant [3 x i8] c"No\00", align 1

; Function Attrs: nofree nounwind sspstrong uwtable
define dso_local i32 @main() local_unnamed_addr #0 {
  %1 = alloca i32, align 4
  %2 = alloca i32, align 4
  %3 = alloca [100 x [100 x i32]], align 16
  %4 = bitcast i32* %1 to i8*
  call void @llvm.lifetime.start.p0i8(i64 4, i8* nonnull %4) #3
  %5 = bitcast i32* %2 to i8*
  call void @llvm.lifetime.start.p0i8(i64 4, i8* nonnull %5) #3
  %6 = bitcast [100 x [100 x i32]]* %3 to i8*
  call void @llvm.lifetime.start.p0i8(i64 40000, i8* nonnull %6) #3
  %7 = call i32 (i8*, ...) @__isoc99_scanf(i8* getelementptr inbounds ([6 x i8], [6 x i8]* @.str, i64 0, i64 0), i32* nonnull %1, i32* nonnull %2)
  %8 = load i32, i32* %1, align 4, !tbaa !5
  %9 = icmp sgt i32 %8, 0
  %10 = load i32, i32* %2, align 4
  %11 = icmp sgt i32 %10, 0
  %12 = select i1 %9, i1 %11, i1 false
  br i1 %12, label %13, label %103

13:                                               ; preds = %0, %33
  %14 = phi i32 [ %34, %33 ], [ %8, %0 ]
  %15 = phi i32 [ %35, %33 ], [ %10, %0 ]
  %16 = phi i64 [ %36, %33 ], [ 0, %0 ]
  %17 = icmp sgt i32 %15, 0
  br i1 %17, label %23, label %33

18:                                               ; preds = %33
  %19 = icmp sgt i32 %34, 0
  %20 = load i32, i32* %2, align 4
  %21 = icmp sgt i32 %20, 0
  %22 = select i1 %19, i1 %21, i1 false
  br i1 %22, label %39, label %103

23:                                               ; preds = %13, %23
  %24 = phi i64 [ %27, %23 ], [ 0, %13 ]
  %25 = getelementptr inbounds [100 x [100 x i32]], [100 x [100 x i32]]* %3, i64 0, i64 %16, i64 %24
  %26 = call i32 (i8*, ...) @__isoc99_scanf(i8* getelementptr inbounds ([3 x i8], [3 x i8]* @.str.1, i64 0, i64 0), i32* nonnull %25)
  %27 = add nuw nsw i64 %24, 1
  %28 = load i32, i32* %2, align 4, !tbaa !5
  %29 = sext i32 %28 to i64
  %30 = icmp slt i64 %27, %29
  br i1 %30, label %23, label %31, !llvm.loop !9

31:                                               ; preds = %23
  %32 = load i32, i32* %1, align 4, !tbaa !5
  br label %33

33:                                               ; preds = %31, %13
  %34 = phi i32 [ %32, %31 ], [ %14, %13 ]
  %35 = phi i32 [ %28, %31 ], [ %15, %13 ]
  %36 = add nuw nsw i64 %16, 1
  %37 = sext i32 %34 to i64
  %38 = icmp slt i64 %36, %37
  br i1 %38, label %13, label %18, !llvm.loop !11

39:                                               ; preds = %18, %93
  %40 = phi i32 [ %94, %93 ], [ %34, %18 ]
  %41 = phi i32 [ %95, %93 ], [ %20, %18 ]
  %42 = phi i32 [ %96, %93 ], [ %20, %18 ]
  %43 = phi i64 [ %98, %93 ], [ 0, %18 ]
  %44 = phi i32 [ %97, %93 ], [ 0, %18 ]
  %45 = icmp sgt i32 %42, 0
  br i1 %45, label %46, label %93

46:                                               ; preds = %39
  %47 = trunc i64 %43 to i32
  br label %48

48:                                               ; preds = %46, %85
  %49 = phi i32 [ %41, %46 ], [ %86, %85 ]
  %50 = phi i64 [ 0, %46 ], [ %88, %85 ]
  %51 = phi i32 [ %42, %46 ], [ %86, %85 ]
  %52 = phi i32 [ %44, %46 ], [ %87, %85 ]
  %53 = getelementptr inbounds [100 x [100 x i32]], [100 x [100 x i32]]* %3, i64 0, i64 %43, i64 %50
  %54 = load i32, i32* %53, align 4, !tbaa !5
  %55 = icmp sgt i32 %51, 0
  br i1 %55, label %56, label %67

56:                                               ; preds = %48
  %57 = zext i32 %51 to i64
  br label %58

58:                                               ; preds = %56, %58
  %59 = phi i64 [ 0, %56 ], [ %63, %58 ]
  %60 = getelementptr inbounds [100 x [100 x i32]], [100 x [100 x i32]]* %3, i64 0, i64 %43, i64 %59
  %61 = load i32, i32* %60, align 4, !tbaa !5
  %62 = icmp sge i32 %54, %61
  %63 = add nuw nsw i64 %59, 1
  %64 = icmp ult i64 %63, %57
  %65 = and i1 %64, %62
  br i1 %65, label %58, label %66, !llvm.loop !13

66:                                               ; preds = %58
  br i1 %62, label %67, label %85

67:                                               ; preds = %48, %66
  %68 = load i32, i32* %1, align 4, !tbaa !5
  %69 = icmp sgt i32 %68, 0
  br i1 %69, label %70, label %81

70:                                               ; preds = %67
  %71 = zext i32 %68 to i64
  br label %72

72:                                               ; preds = %70, %72
  %73 = phi i64 [ 0, %70 ], [ %77, %72 ]
  %74 = getelementptr inbounds [100 x [100 x i32]], [100 x [100 x i32]]* %3, i64 0, i64 %73, i64 %50
  %75 = load i32, i32* %74, align 4, !tbaa !5
  %76 = icmp sle i32 %54, %75
  %77 = add nuw nsw i64 %73, 1
  %78 = icmp ult i64 %77, %71
  %79 = and i1 %76, %78
  br i1 %79, label %72, label %80, !llvm.loop !14

80:                                               ; preds = %72
  br i1 %76, label %81, label %85

81:                                               ; preds = %67, %80
  %82 = trunc i64 %50 to i32
  %83 = call i32 (i8*, ...) @printf(i8* nonnull dereferenceable(1) getelementptr inbounds ([6 x i8], [6 x i8]* @.str.2, i64 0, i64 0), i32 %47, i32 %82)
  %84 = load i32, i32* %2, align 4, !tbaa !5
  br label %85

85:                                               ; preds = %66, %81, %80
  %86 = phi i32 [ %84, %81 ], [ %49, %80 ], [ %49, %66 ]
  %87 = phi i32 [ 1, %81 ], [ %52, %80 ], [ %52, %66 ]
  %88 = add nuw nsw i64 %50, 1
  %89 = sext i32 %86 to i64
  %90 = icmp slt i64 %88, %89
  br i1 %90, label %48, label %91, !llvm.loop !15

91:                                               ; preds = %85
  %92 = load i32, i32* %1, align 4, !tbaa !5
  br label %93

93:                                               ; preds = %91, %39
  %94 = phi i32 [ %40, %39 ], [ %92, %91 ]
  %95 = phi i32 [ %41, %39 ], [ %86, %91 ]
  %96 = phi i32 [ %42, %39 ], [ %86, %91 ]
  %97 = phi i32 [ %44, %39 ], [ %87, %91 ]
  %98 = add nuw nsw i64 %43, 1
  %99 = sext i32 %94 to i64
  %100 = icmp slt i64 %98, %99
  br i1 %100, label %39, label %101, !llvm.loop !16

101:                                              ; preds = %93
  %102 = icmp eq i32 %97, 0
  br i1 %102, label %103, label %105

103:                                              ; preds = %0, %18, %101
  %104 = call i32 (i8*, ...) @printf(i8* nonnull dereferenceable(1) getelementptr inbounds ([3 x i8], [3 x i8]* @.str.3, i64 0, i64 0))
  br label %105

105:                                              ; preds = %103, %101
  call void @llvm.lifetime.end.p0i8(i64 40000, i8* nonnull %6) #3
  call void @llvm.lifetime.end.p0i8(i64 4, i8* nonnull %5) #3
  call void @llvm.lifetime.end.p0i8(i64 4, i8* nonnull %4) #3
  ret i32 0
}

; Function Attrs: argmemonly mustprogress nofree nosync nounwind willreturn
declare void @llvm.lifetime.start.p0i8(i64 immarg, i8* nocapture) #1

; Function Attrs: nofree nounwind
declare noundef i32 @__isoc99_scanf(i8* nocapture noundef readonly, ...) local_unnamed_addr #2

; Function Attrs: nofree nounwind
declare noundef i32 @printf(i8* nocapture noundef readonly, ...) local_unnamed_addr #2

; Function Attrs: argmemonly mustprogress nofree nosync nounwind willreturn
declare void @llvm.lifetime.end.p0i8(i64 immarg, i8* nocapture) #1


!llvm.module.flags = !{!0, !1, !2, !3}
!llvm.ident = !{!4}

!0 = !{i32 1, !"wchar_size", i32 4}
!1 = !{i32 7, !"PIC Level", i32 2}
!2 = !{i32 7, !"PIE Level", i32 2}
!3 = !{i32 7, !"uwtable", i32 1}
!4 = !{!"clang version 13.0.0"}
!5 = !{!6, !6, i64 0}
!6 = !{!"int", !7, i64 0}
!7 = !{!"omnipotent char", !8, i64 0}
!8 = !{!"Simple C/C++ TBAA"}
!9 = distinct !{!9, !10}
!10 = !{!"llvm.loop.mustprogress"}
!11 = distinct !{!11, !10, !12}
!12 = !{!"llvm.loop.unswitch.partial.disable"}
!13 = distinct !{!13, !10}
!14 = distinct !{!14, !10}
!15 = distinct !{!15, !10}
!16 = distinct !{!16, !10, !12}
